	.file	"lis.cpp"
	.section .rdata,"dr"
__ZStL19piecewise_construct:
	.space 1
__ZStL13allocator_arg:
	.space 1
__ZStL6ignore:
	.space 1
.lcomm __ZStL8__ioinit,1,1
	.align 4
__ZN9__gnu_cxxL21__default_lock_policyE:
	.long	2
__ZStL10defer_lock:
	.space 1
__ZStL11try_to_lock:
	.space 1
__ZStL10adopt_lock:
	.space 1
	.align 4
__ZNSt15regex_constantsL5icaseE:
	.long	1
	.align 4
__ZNSt15regex_constantsL6nosubsE:
	.long	2
	.align 4
__ZNSt15regex_constantsL8optimizeE:
	.long	4
	.align 4
__ZNSt15regex_constantsL7collateE:
	.long	8
	.align 4
__ZNSt15regex_constantsL10ECMAScriptE:
	.long	16
	.align 4
__ZNSt15regex_constantsL5basicE:
	.long	32
	.align 4
__ZNSt15regex_constantsL8extendedE:
	.long	64
	.align 4
__ZNSt15regex_constantsL3awkE:
	.long	128
	.align 4
__ZNSt15regex_constantsL4grepE:
	.long	256
	.align 4
__ZNSt15regex_constantsL5egrepE:
	.long	512
	.align 4
__ZNSt15regex_constantsL12__polynomialE:
	.long	1024
	.align 4
__ZNSt15regex_constantsL13match_defaultE:
	.space 4
	.align 4
__ZNSt15regex_constantsL13match_not_bolE:
	.long	1
	.align 4
__ZNSt15regex_constantsL13match_not_eolE:
	.long	2
	.align 4
__ZNSt15regex_constantsL13match_not_bowE:
	.long	4
	.align 4
__ZNSt15regex_constantsL13match_not_eowE:
	.long	8
	.align 4
__ZNSt15regex_constantsL9match_anyE:
	.long	16
	.align 4
__ZNSt15regex_constantsL14match_not_nullE:
	.long	32
	.align 4
__ZNSt15regex_constantsL16match_continuousE:
	.long	64
	.align 4
__ZNSt15regex_constantsL16match_prev_availE:
	.long	128
	.align 4
__ZNSt15regex_constantsL14format_defaultE:
	.space 4
	.align 4
__ZNSt15regex_constantsL10format_sedE:
	.long	256
	.align 4
__ZNSt15regex_constantsL14format_no_copyE:
	.long	512
	.align 4
__ZNSt15regex_constantsL17format_first_onlyE:
	.long	1024
	.align 4
__ZNSt15regex_constantsL13error_collateE:
	.space 4
	.align 4
__ZNSt15regex_constantsL11error_ctypeE:
	.long	1
	.align 4
__ZNSt15regex_constantsL12error_escapeE:
	.long	2
	.align 4
__ZNSt15regex_constantsL13error_backrefE:
	.long	3
	.align 4
__ZNSt15regex_constantsL11error_brackE:
	.long	4
	.align 4
__ZNSt15regex_constantsL11error_parenE:
	.long	5
	.align 4
__ZNSt15regex_constantsL11error_braceE:
	.long	6
	.align 4
__ZNSt15regex_constantsL14error_badbraceE:
	.long	7
	.align 4
__ZNSt15regex_constantsL11error_rangeE:
	.long	8
	.align 4
__ZNSt15regex_constantsL11error_spaceE:
	.long	9
	.align 4
__ZNSt15regex_constantsL15error_badrepeatE:
	.long	10
	.align 4
__ZNSt15regex_constantsL16error_complexityE:
	.long	11
	.align 4
__ZNSt15regex_constantsL11error_stackE:
	.long	12
	.align 4
__ZNSt8__detailL19_S_invalid_state_idE:
	.long	-1
	.text
	.globl	__Z3lisPKii
	.def	__Z3lisPKii;	.scl	2;	.type	32;	.endef
__Z3lisPKii:
LFB7686:
	.cfi_startproc
	.cfi_personality 0,___gxx_personality_v0
	.cfi_lsda 0,LLSDA7686
	pushl	%ebp
	.cfi_def_cfa_offset 8
	.cfi_offset 5, -8
	movl	%esp, %ebp
	.cfi_def_cfa_register 5
	pushl	%ebx
	subl	$68, %esp
	.cfi_offset 3, -12
	leal	-29(%ebp), %eax
	movl	%eax, %ecx
	call	__ZNSaIiEC1Ev
	movl	$2147483647, -28(%ebp)
	movl	12(%ebp), %eax
	addl	$1, %eax
	movl	%eax, %ecx
	leal	-44(%ebp), %eax
	leal	-29(%ebp), %edx
	movl	%edx, 8(%esp)
	leal	-28(%ebp), %edx
	movl	%edx, 4(%esp)
	movl	%ecx, (%esp)
	movl	%eax, %ecx
LEHB0:
	call	__ZNSt6vectorIiSaIiEEC1EjRKiRKS0_
LEHE0:
	subl	$12, %esp
	leal	-29(%ebp), %eax
	movl	%eax, %ecx
	call	__ZNSaIiED1Ev
	leal	-44(%ebp), %eax
	movl	$0, (%esp)
	movl	%eax, %ecx
	call	__ZNSt6vectorIiSaIiEEixEj
	subl	$4, %esp
	movl	$-2147483648, (%eax)
	movl	$0, -12(%ebp)
L8:
	movl	-12(%ebp), %eax
	cmpl	12(%ebp), %eax
	jge	L2
	movl	$1, -16(%ebp)
L7:
	movl	-16(%ebp), %eax
	cmpl	12(%ebp), %eax
	jg	L3
	movl	-16(%ebp), %eax
	subl	$1, %eax
	movl	%eax, %edx
	leal	-44(%ebp), %eax
	movl	%edx, (%esp)
	movl	%eax, %ecx
	call	__ZNSt6vectorIiSaIiEEixEj
	subl	$4, %esp
	movl	(%eax), %edx
	movl	-12(%ebp), %eax
	leal	0(,%eax,4), %ecx
	movl	8(%ebp), %eax
	addl	%ecx, %eax
	movl	(%eax), %eax
	cmpl	%eax, %edx
	jge	L4
	movl	-12(%ebp), %eax
	leal	0(,%eax,4), %edx
	movl	8(%ebp), %eax
	addl	%edx, %eax
	movl	(%eax), %ebx
	movl	-16(%ebp), %edx
	leal	-44(%ebp), %eax
	movl	%edx, (%esp)
	movl	%eax, %ecx
	call	__ZNSt6vectorIiSaIiEEixEj
	subl	$4, %esp
	movl	(%eax), %eax
	cmpl	%eax, %ebx
	jge	L4
	movl	$1, %eax
	jmp	L5
L4:
	movl	$0, %eax
L5:
	testb	%al, %al
	je	L6
	movl	-16(%ebp), %edx
	leal	-44(%ebp), %eax
	movl	%edx, (%esp)
	movl	%eax, %ecx
	call	__ZNSt6vectorIiSaIiEEixEj
	subl	$4, %esp
	movl	%eax, %edx
	movl	-12(%ebp), %eax
	leal	0(,%eax,4), %ecx
	movl	8(%ebp), %eax
	addl	%ecx, %eax
	movl	(%eax), %eax
	movl	%eax, (%edx)
L6:
	addl	$1, -16(%ebp)
	jmp	L7
L3:
	addl	$1, -12(%ebp)
	jmp	L8
L2:
	movl	$0, -20(%ebp)
	movl	$0, -24(%ebp)
L11:
	movl	-24(%ebp), %eax
	cmpl	12(%ebp), %eax
	jge	L9
	movl	-24(%ebp), %edx
	leal	-44(%ebp), %eax
	movl	%edx, (%esp)
	movl	%eax, %ecx
	call	__ZNSt6vectorIiSaIiEEixEj
	subl	$4, %esp
	movl	(%eax), %eax
	cmpl	$2147483647, %eax
	setne	%al
	testb	%al, %al
	je	L10
	movl	-24(%ebp), %eax
	movl	%eax, -20(%ebp)
L10:
	addl	$1, -24(%ebp)
	jmp	L11
L9:
	movl	-20(%ebp), %ebx
	leal	-44(%ebp), %eax
	movl	%eax, %ecx
	call	__ZNSt6vectorIiSaIiEED1Ev
	movl	%ebx, %eax
	jmp	L15
L14:
	movl	%eax, %ebx
	leal	-29(%ebp), %eax
	movl	%eax, %ecx
	call	__ZNSaIiED1Ev
	movl	%ebx, %eax
	movl	%eax, (%esp)
LEHB1:
	call	__Unwind_Resume
LEHE1:
L15:
	movl	-4(%ebp), %ebx
	leave
	.cfi_restore 5
	.cfi_restore 3
	.cfi_def_cfa 4, 4
	ret
	.cfi_endproc
LFE7686:
	.def	___gxx_personality_v0;	.scl	2;	.type	32;	.endef
	.section	.gcc_except_table,"w"
LLSDA7686:
	.byte	0xff
	.byte	0xff
	.byte	0x1
	.uleb128 LLSDACSE7686-LLSDACSB7686
LLSDACSB7686:
	.uleb128 LEHB0-LFB7686
	.uleb128 LEHE0-LEHB0
	.uleb128 L14-LFB7686
	.uleb128 0
	.uleb128 LEHB1-LFB7686
	.uleb128 LEHE1-LEHB1
	.uleb128 0
	.uleb128 0
LLSDACSE7686:
	.text
	.def	___main;	.scl	2;	.type	32;	.endef
	.globl	_main
	.def	_main;	.scl	2;	.type	32;	.endef
_main:
LFB7687:
	.cfi_startproc
	leal	4(%esp), %ecx
	.cfi_def_cfa 1, 0
	andl	$-16, %esp
	pushl	-4(%ecx)
	pushl	%ebp
	.cfi_escape 0x10,0x5,0x2,0x75,0
	movl	%esp, %ebp
	pushl	%ebx
	pushl	%ecx
	.cfi_escape 0xf,0x3,0x75,0x78,0x6
	.cfi_escape 0x10,0x3,0x2,0x75,0x7c
	subl	$48, %esp
	call	___main
	movl	%esp, %eax
	movl	%eax, %ebx
	leal	-24(%ebp), %eax
	movl	%eax, (%esp)
	movl	$__ZSt3cin, %ecx
	call	__ZNSirsERi
	subl	$4, %esp
	movl	-24(%ebp), %eax
	subl	$1, %eax
	movl	%eax, -16(%ebp)
	addl	$1, %eax
	sall	$2, %eax
	leal	3(%eax), %edx
	movl	$16, %eax
	subl	$1, %eax
	addl	%edx, %eax
	movl	$16, %ecx
	movl	$0, %edx
	divl	%ecx
	imull	$16, %eax, %eax
	call	___chkstk_ms
	subl	%eax, %esp
	leal	8(%esp), %eax
	addl	$3, %eax
	shrl	$2, %eax
	sall	$2, %eax
	movl	%eax, -20(%ebp)
	movl	$0, -12(%ebp)
L18:
	movl	-24(%ebp), %eax
	cmpl	%eax, -12(%ebp)
	jge	L17
	leal	-28(%ebp), %eax
	movl	%eax, (%esp)
	movl	$__ZSt3cin, %ecx
	call	__ZNSirsERi
	subl	$4, %esp
	movl	-28(%ebp), %ecx
	movl	-20(%ebp), %eax
	movl	-12(%ebp), %edx
	movl	%ecx, (%eax,%edx,4)
	addl	$1, -12(%ebp)
	jmp	L18
L17:
	movl	-24(%ebp), %edx
	movl	-20(%ebp), %eax
	movl	%edx, 4(%esp)
	movl	%eax, (%esp)
	call	__Z3lisPKii
	movl	%eax, (%esp)
	movl	$__ZSt4cout, %ecx
	call	__ZNSolsEi
	subl	$4, %esp
	movl	$0, %eax
	movl	%ebx, %esp
	leal	-8(%ebp), %esp
	popl	%ecx
	.cfi_restore 1
	.cfi_def_cfa 1, 0
	popl	%ebx
	.cfi_restore 3
	popl	%ebp
	.cfi_restore 5
	leal	-4(%ecx), %esp
	.cfi_def_cfa 4, 4
	ret
	.cfi_endproc
LFE7687:
	.section	.text$_ZNSaIiEC1Ev,"x"
	.linkonce discard
	.align 2
	.globl	__ZNSaIiEC1Ev
	.def	__ZNSaIiEC1Ev;	.scl	2;	.type	32;	.endef
__ZNSaIiEC1Ev:
LFB7958:
	.cfi_startproc
	pushl	%ebp
	.cfi_def_cfa_offset 8
	.cfi_offset 5, -8
	movl	%esp, %ebp
	.cfi_def_cfa_register 5
	subl	$24, %esp
	movl	%ecx, -12(%ebp)
	movl	-12(%ebp), %eax
	movl	%eax, %ecx
	call	__ZN9__gnu_cxx13new_allocatorIiEC2Ev
	nop
	leave
	.cfi_restore 5
	.cfi_def_cfa 4, 4
	ret
	.cfi_endproc
LFE7958:
	.section	.text$_ZNSaIiED2Ev,"x"
	.linkonce discard
	.align 2
	.globl	__ZNSaIiED2Ev
	.def	__ZNSaIiED2Ev;	.scl	2;	.type	32;	.endef
__ZNSaIiED2Ev:
LFB7960:
	.cfi_startproc
	pushl	%ebp
	.cfi_def_cfa_offset 8
	.cfi_offset 5, -8
	movl	%esp, %ebp
	.cfi_def_cfa_register 5
	subl	$24, %esp
	movl	%ecx, -12(%ebp)
	movl	-12(%ebp), %eax
	movl	%eax, %ecx
	call	__ZN9__gnu_cxx13new_allocatorIiED2Ev
	nop
	leave
	.cfi_restore 5
	.cfi_def_cfa 4, 4
	ret
	.cfi_endproc
LFE7960:
	.section	.text$_ZNSaIiED1Ev,"x"
	.linkonce discard
	.align 2
	.globl	__ZNSaIiED1Ev
	.def	__ZNSaIiED1Ev;	.scl	2;	.type	32;	.endef
__ZNSaIiED1Ev:
LFB7961:
	.cfi_startproc
	pushl	%ebp
	.cfi_def_cfa_offset 8
	.cfi_offset 5, -8
	movl	%esp, %ebp
	.cfi_def_cfa_register 5
	subl	$24, %esp
	movl	%ecx, -12(%ebp)
	movl	-12(%ebp), %eax
	movl	%eax, %ecx
	call	__ZN9__gnu_cxx13new_allocatorIiED2Ev
	nop
	leave
	.cfi_restore 5
	.cfi_def_cfa 4, 4
	ret
	.cfi_endproc
LFE7961:
	.section	.text$_ZNSt6vectorIiSaIiEEC1EjRKiRKS0_,"x"
	.linkonce discard
	.align 2
	.globl	__ZNSt6vectorIiSaIiEEC1EjRKiRKS0_
	.def	__ZNSt6vectorIiSaIiEEC1EjRKiRKS0_;	.scl	2;	.type	32;	.endef
__ZNSt6vectorIiSaIiEEC1EjRKiRKS0_:
LFB7964:
	.cfi_startproc
	.cfi_personality 0,___gxx_personality_v0
	.cfi_lsda 0,LLSDA7964
	pushl	%ebp
	.cfi_def_cfa_offset 8
	.cfi_offset 5, -8
	movl	%esp, %ebp
	.cfi_def_cfa_register 5
	pushl	%ebx
	subl	$36, %esp
	.cfi_offset 3, -12
	movl	%ecx, -12(%ebp)
	movl	-12(%ebp), %eax
	movl	16(%ebp), %edx
	movl	%edx, 4(%esp)
	movl	8(%ebp), %edx
	movl	%edx, (%esp)
	movl	%eax, %ecx
LEHB2:
	call	__ZNSt12_Vector_baseIiSaIiEEC2EjRKS0_
LEHE2:
	subl	$8, %esp
	movl	-12(%ebp), %eax
	movl	12(%ebp), %edx
	movl	%edx, 4(%esp)
	movl	8(%ebp), %edx
	movl	%edx, (%esp)
	movl	%eax, %ecx
LEHB3:
	call	__ZNSt6vectorIiSaIiEE18_M_fill_initializeEjRKi
LEHE3:
	subl	$8, %esp
	jmp	L26
L25:
	movl	%eax, %ebx
	movl	-12(%ebp), %eax
	movl	%eax, %ecx
	call	__ZNSt12_Vector_baseIiSaIiEED2Ev
	movl	%ebx, %eax
	movl	%eax, (%esp)
LEHB4:
	call	__Unwind_Resume
LEHE4:
L26:
	movl	-4(%ebp), %ebx
	leave
	.cfi_restore 5
	.cfi_restore 3
	.cfi_def_cfa 4, 4
	ret	$12
	.cfi_endproc
LFE7964:
	.section	.gcc_except_table,"w"
LLSDA7964:
	.byte	0xff
	.byte	0xff
	.byte	0x1
	.uleb128 LLSDACSE7964-LLSDACSB7964
LLSDACSB7964:
	.uleb128 LEHB2-LFB7964
	.uleb128 LEHE2-LEHB2
	.uleb128 0
	.uleb128 0
	.uleb128 LEHB3-LFB7964
	.uleb128 LEHE3-LEHB3
	.uleb128 L25-LFB7964
	.uleb128 0
	.uleb128 LEHB4-LFB7964
	.uleb128 LEHE4-LEHB4
	.uleb128 0
	.uleb128 0
LLSDACSE7964:
	.section	.text$_ZNSt6vectorIiSaIiEEC1EjRKiRKS0_,"x"
	.linkonce discard
	.section	.text$_ZNSt6vectorIiSaIiEED1Ev,"x"
	.linkonce discard
	.align 2
	.globl	__ZNSt6vectorIiSaIiEED1Ev
	.def	__ZNSt6vectorIiSaIiEED1Ev;	.scl	2;	.type	32;	.endef
__ZNSt6vectorIiSaIiEED1Ev:
LFB7967:
	.cfi_startproc
	.cfi_personality 0,___gxx_personality_v0
	.cfi_lsda 0,LLSDA7967
	pushl	%ebp
	.cfi_def_cfa_offset 8
	.cfi_offset 5, -8
	movl	%esp, %ebp
	.cfi_def_cfa_register 5
	subl	$40, %esp
	movl	%ecx, -12(%ebp)
	movl	-12(%ebp), %eax
	movl	%eax, %ecx
	call	__ZNSt12_Vector_baseIiSaIiEE19_M_get_Tp_allocatorEv
	movl	%eax, %ecx
	movl	-12(%ebp), %eax
	movl	4(%eax), %edx
	movl	-12(%ebp), %eax
	movl	(%eax), %eax
	movl	%ecx, 8(%esp)
	movl	%edx, 4(%esp)
	movl	%eax, (%esp)
	call	__ZSt8_DestroyIPiiEvT_S1_RSaIT0_E
	movl	-12(%ebp), %eax
	movl	%eax, %ecx
	call	__ZNSt12_Vector_baseIiSaIiEED2Ev
	nop
	leave
	.cfi_restore 5
	.cfi_def_cfa 4, 4
	ret
	.cfi_endproc
LFE7967:
	.section	.gcc_except_table,"w"
LLSDA7967:
	.byte	0xff
	.byte	0xff
	.byte	0x1
	.uleb128 LLSDACSE7967-LLSDACSB7967
LLSDACSB7967:
LLSDACSE7967:
	.section	.text$_ZNSt6vectorIiSaIiEED1Ev,"x"
	.linkonce discard
	.section	.text$_ZNSt6vectorIiSaIiEEixEj,"x"
	.linkonce discard
	.align 2
	.globl	__ZNSt6vectorIiSaIiEEixEj
	.def	__ZNSt6vectorIiSaIiEEixEj;	.scl	2;	.type	32;	.endef
__ZNSt6vectorIiSaIiEEixEj:
LFB7968:
	.cfi_startproc
	pushl	%ebp
	.cfi_def_cfa_offset 8
	.cfi_offset 5, -8
	movl	%esp, %ebp
	.cfi_def_cfa_register 5
	subl	$4, %esp
	movl	%ecx, -4(%ebp)
	movl	-4(%ebp), %eax
	movl	(%eax), %eax
	movl	8(%ebp), %edx
	sall	$2, %edx
	addl	%edx, %eax
	leave
	.cfi_restore 5
	.cfi_def_cfa 4, 4
	ret	$4
	.cfi_endproc
LFE7968:
	.section	.text$_ZN9__gnu_cxx13new_allocatorIiEC2Ev,"x"
	.linkonce discard
	.align 2
	.globl	__ZN9__gnu_cxx13new_allocatorIiEC2Ev
	.def	__ZN9__gnu_cxx13new_allocatorIiEC2Ev;	.scl	2;	.type	32;	.endef
__ZN9__gnu_cxx13new_allocatorIiEC2Ev:
LFB8078:
	.cfi_startproc
	pushl	%ebp
	.cfi_def_cfa_offset 8
	.cfi_offset 5, -8
	movl	%esp, %ebp
	.cfi_def_cfa_register 5
	subl	$4, %esp
	movl	%ecx, -4(%ebp)
	nop
	leave
	.cfi_restore 5
	.cfi_def_cfa 4, 4
	ret
	.cfi_endproc
LFE8078:
	.section	.text$_ZN9__gnu_cxx13new_allocatorIiED2Ev,"x"
	.linkonce discard
	.align 2
	.globl	__ZN9__gnu_cxx13new_allocatorIiED2Ev
	.def	__ZN9__gnu_cxx13new_allocatorIiED2Ev;	.scl	2;	.type	32;	.endef
__ZN9__gnu_cxx13new_allocatorIiED2Ev:
LFB8081:
	.cfi_startproc
	pushl	%ebp
	.cfi_def_cfa_offset 8
	.cfi_offset 5, -8
	movl	%esp, %ebp
	.cfi_def_cfa_register 5
	subl	$4, %esp
	movl	%ecx, -4(%ebp)
	nop
	leave
	.cfi_restore 5
	.cfi_def_cfa 4, 4
	ret
	.cfi_endproc
LFE8081:
	.section	.text$_ZNSt12_Vector_baseIiSaIiEE12_Vector_implD1Ev,"x"
	.linkonce discard
	.align 2
	.globl	__ZNSt12_Vector_baseIiSaIiEE12_Vector_implD1Ev
	.def	__ZNSt12_Vector_baseIiSaIiEE12_Vector_implD1Ev;	.scl	2;	.type	32;	.endef
__ZNSt12_Vector_baseIiSaIiEE12_Vector_implD1Ev:
LFB8086:
	.cfi_startproc
	pushl	%ebp
	.cfi_def_cfa_offset 8
	.cfi_offset 5, -8
	movl	%esp, %ebp
	.cfi_def_cfa_register 5
	subl	$24, %esp
	movl	%ecx, -12(%ebp)
	movl	-12(%ebp), %eax
	movl	%eax, %ecx
	call	__ZNSaIiED2Ev
	nop
	leave
	.cfi_restore 5
	.cfi_def_cfa 4, 4
	ret
	.cfi_endproc
LFE8086:
	.section	.text$_ZNSt12_Vector_baseIiSaIiEEC2EjRKS0_,"x"
	.linkonce discard
	.align 2
	.globl	__ZNSt12_Vector_baseIiSaIiEEC2EjRKS0_
	.def	__ZNSt12_Vector_baseIiSaIiEEC2EjRKS0_;	.scl	2;	.type	32;	.endef
__ZNSt12_Vector_baseIiSaIiEEC2EjRKS0_:
LFB8087:
	.cfi_startproc
	.cfi_personality 0,___gxx_personality_v0
	.cfi_lsda 0,LLSDA8087
	pushl	%ebp
	.cfi_def_cfa_offset 8
	.cfi_offset 5, -8
	movl	%esp, %ebp
	.cfi_def_cfa_register 5
	pushl	%ebx
	subl	$36, %esp
	.cfi_offset 3, -12
	movl	%ecx, -12(%ebp)
	movl	-12(%ebp), %eax
	movl	12(%ebp), %edx
	movl	%edx, (%esp)
	movl	%eax, %ecx
	call	__ZNSt12_Vector_baseIiSaIiEE12_Vector_implC1ERKS0_
	subl	$4, %esp
	movl	-12(%ebp), %eax
	movl	8(%ebp), %edx
	movl	%edx, (%esp)
	movl	%eax, %ecx
LEHB5:
	call	__ZNSt12_Vector_baseIiSaIiEE17_M_create_storageEj
LEHE5:
	subl	$4, %esp
	jmp	L36
L35:
	movl	%eax, %ebx
	movl	-12(%ebp), %eax
	movl	%eax, %ecx
	call	__ZNSt12_Vector_baseIiSaIiEE12_Vector_implD1Ev
	movl	%ebx, %eax
	movl	%eax, (%esp)
LEHB6:
	call	__Unwind_Resume
LEHE6:
L36:
	movl	-4(%ebp), %ebx
	leave
	.cfi_restore 5
	.cfi_restore 3
	.cfi_def_cfa 4, 4
	ret	$8
	.cfi_endproc
LFE8087:
	.section	.gcc_except_table,"w"
LLSDA8087:
	.byte	0xff
	.byte	0xff
	.byte	0x1
	.uleb128 LLSDACSE8087-LLSDACSB8087
LLSDACSB8087:
	.uleb128 LEHB5-LFB8087
	.uleb128 LEHE5-LEHB5
	.uleb128 L35-LFB8087
	.uleb128 0
	.uleb128 LEHB6-LFB8087
	.uleb128 LEHE6-LEHB6
	.uleb128 0
	.uleb128 0
LLSDACSE8087:
	.section	.text$_ZNSt12_Vector_baseIiSaIiEEC2EjRKS0_,"x"
	.linkonce discard
	.section	.text$_ZNSt12_Vector_baseIiSaIiEED2Ev,"x"
	.linkonce discard
	.align 2
	.globl	__ZNSt12_Vector_baseIiSaIiEED2Ev
	.def	__ZNSt12_Vector_baseIiSaIiEED2Ev;	.scl	2;	.type	32;	.endef
__ZNSt12_Vector_baseIiSaIiEED2Ev:
LFB8090:
	.cfi_startproc
	.cfi_personality 0,___gxx_personality_v0
	.cfi_lsda 0,LLSDA8090
	pushl	%ebp
	.cfi_def_cfa_offset 8
	.cfi_offset 5, -8
	movl	%esp, %ebp
	.cfi_def_cfa_register 5
	subl	$40, %esp
	movl	%ecx, -12(%ebp)
	movl	-12(%ebp), %eax
	movl	8(%eax), %eax
	movl	%eax, %edx
	movl	-12(%ebp), %eax
	movl	(%eax), %eax
	subl	%eax, %edx
	movl	%edx, %eax
	sarl	$2, %eax
	movl	%eax, %ecx
	movl	-12(%ebp), %eax
	movl	(%eax), %edx
	movl	-12(%ebp), %eax
	movl	%ecx, 4(%esp)
	movl	%edx, (%esp)
	movl	%eax, %ecx
	call	__ZNSt12_Vector_baseIiSaIiEE13_M_deallocateEPij
	subl	$8, %esp
	movl	-12(%ebp), %eax
	movl	%eax, %ecx
	call	__ZNSt12_Vector_baseIiSaIiEE12_Vector_implD1Ev
	nop
	leave
	.cfi_restore 5
	.cfi_def_cfa 4, 4
	ret
	.cfi_endproc
LFE8090:
	.section	.gcc_except_table,"w"
LLSDA8090:
	.byte	0xff
	.byte	0xff
	.byte	0x1
	.uleb128 LLSDACSE8090-LLSDACSB8090
LLSDACSB8090:
LLSDACSE8090:
	.section	.text$_ZNSt12_Vector_baseIiSaIiEED2Ev,"x"
	.linkonce discard
	.section	.text$_ZNSt6vectorIiSaIiEE18_M_fill_initializeEjRKi,"x"
	.linkonce discard
	.align 2
	.globl	__ZNSt6vectorIiSaIiEE18_M_fill_initializeEjRKi
	.def	__ZNSt6vectorIiSaIiEE18_M_fill_initializeEjRKi;	.scl	2;	.type	32;	.endef
__ZNSt6vectorIiSaIiEE18_M_fill_initializeEjRKi:
LFB8092:
	.cfi_startproc
	pushl	%ebp
	.cfi_def_cfa_offset 8
	.cfi_offset 5, -8
	movl	%esp, %ebp
	.cfi_def_cfa_register 5
	subl	$40, %esp
	movl	%ecx, -12(%ebp)
	movl	-12(%ebp), %eax
	movl	%eax, %ecx
	call	__ZNSt12_Vector_baseIiSaIiEE19_M_get_Tp_allocatorEv
	movl	%eax, %edx
	movl	-12(%ebp), %eax
	movl	(%eax), %eax
	movl	%edx, 12(%esp)
	movl	12(%ebp), %edx
	movl	%edx, 8(%esp)
	movl	8(%ebp), %edx
	movl	%edx, 4(%esp)
	movl	%eax, (%esp)
	call	__ZSt24__uninitialized_fill_n_aIPijiiET_S1_T0_RKT1_RSaIT2_E
	movl	%eax, %edx
	movl	-12(%ebp), %eax
	movl	%edx, 4(%eax)
	nop
	leave
	.cfi_restore 5
	.cfi_def_cfa 4, 4
	ret	$8
	.cfi_endproc
LFE8092:
	.section	.text$_ZNSt12_Vector_baseIiSaIiEE19_M_get_Tp_allocatorEv,"x"
	.linkonce discard
	.align 2
	.globl	__ZNSt12_Vector_baseIiSaIiEE19_M_get_Tp_allocatorEv
	.def	__ZNSt12_Vector_baseIiSaIiEE19_M_get_Tp_allocatorEv;	.scl	2;	.type	32;	.endef
__ZNSt12_Vector_baseIiSaIiEE19_M_get_Tp_allocatorEv:
LFB8093:
	.cfi_startproc
	pushl	%ebp
	.cfi_def_cfa_offset 8
	.cfi_offset 5, -8
	movl	%esp, %ebp
	.cfi_def_cfa_register 5
	subl	$4, %esp
	movl	%ecx, -4(%ebp)
	movl	-4(%ebp), %eax
	leave
	.cfi_restore 5
	.cfi_def_cfa 4, 4
	ret
	.cfi_endproc
LFE8093:
	.section	.text$_ZSt8_DestroyIPiiEvT_S1_RSaIT0_E,"x"
	.linkonce discard
	.globl	__ZSt8_DestroyIPiiEvT_S1_RSaIT0_E
	.def	__ZSt8_DestroyIPiiEvT_S1_RSaIT0_E;	.scl	2;	.type	32;	.endef
__ZSt8_DestroyIPiiEvT_S1_RSaIT0_E:
LFB8094:
	.cfi_startproc
	pushl	%ebp
	.cfi_def_cfa_offset 8
	.cfi_offset 5, -8
	movl	%esp, %ebp
	.cfi_def_cfa_register 5
	subl	$24, %esp
	movl	12(%ebp), %eax
	movl	%eax, 4(%esp)
	movl	8(%ebp), %eax
	movl	%eax, (%esp)
	call	__ZSt8_DestroyIPiEvT_S1_
	nop
	leave
	.cfi_restore 5
	.cfi_def_cfa 4, 4
	ret
	.cfi_endproc
LFE8094:
	.section	.text$_ZNSt12_Vector_baseIiSaIiEE12_Vector_implC1ERKS0_,"x"
	.linkonce discard
	.align 2
	.globl	__ZNSt12_Vector_baseIiSaIiEE12_Vector_implC1ERKS0_
	.def	__ZNSt12_Vector_baseIiSaIiEE12_Vector_implC1ERKS0_;	.scl	2;	.type	32;	.endef
__ZNSt12_Vector_baseIiSaIiEE12_Vector_implC1ERKS0_:
LFB8139:
	.cfi_startproc
	pushl	%ebp
	.cfi_def_cfa_offset 8
	.cfi_offset 5, -8
	movl	%esp, %ebp
	.cfi_def_cfa_register 5
	subl	$40, %esp
	movl	%ecx, -12(%ebp)
	movl	-12(%ebp), %eax
	movl	8(%ebp), %edx
	movl	%edx, (%esp)
	movl	%eax, %ecx
	call	__ZNSaIiEC2ERKS_
	subl	$4, %esp
	movl	-12(%ebp), %eax
	movl	$0, (%eax)
	movl	-12(%ebp), %eax
	movl	$0, 4(%eax)
	movl	-12(%ebp), %eax
	movl	$0, 8(%eax)
	nop
	leave
	.cfi_restore 5
	.cfi_def_cfa 4, 4
	ret	$4
	.cfi_endproc
LFE8139:
	.section	.text$_ZNSt12_Vector_baseIiSaIiEE17_M_create_storageEj,"x"
	.linkonce discard
	.align 2
	.globl	__ZNSt12_Vector_baseIiSaIiEE17_M_create_storageEj
	.def	__ZNSt12_Vector_baseIiSaIiEE17_M_create_storageEj;	.scl	2;	.type	32;	.endef
__ZNSt12_Vector_baseIiSaIiEE17_M_create_storageEj:
LFB8140:
	.cfi_startproc
	pushl	%ebp
	.cfi_def_cfa_offset 8
	.cfi_offset 5, -8
	movl	%esp, %ebp
	.cfi_def_cfa_register 5
	subl	$40, %esp
	movl	%ecx, -12(%ebp)
	movl	-12(%ebp), %eax
	movl	8(%ebp), %edx
	movl	%edx, (%esp)
	movl	%eax, %ecx
	call	__ZNSt12_Vector_baseIiSaIiEE11_M_allocateEj
	subl	$4, %esp
	movl	%eax, %edx
	movl	-12(%ebp), %eax
	movl	%edx, (%eax)
	movl	-12(%ebp), %eax
	movl	(%eax), %edx
	movl	-12(%ebp), %eax
	movl	%edx, 4(%eax)
	movl	-12(%ebp), %eax
	movl	(%eax), %eax
	movl	8(%ebp), %edx
	sall	$2, %edx
	addl	%eax, %edx
	movl	-12(%ebp), %eax
	movl	%edx, 8(%eax)
	nop
	leave
	.cfi_restore 5
	.cfi_def_cfa 4, 4
	ret	$4
	.cfi_endproc
LFE8140:
	.section	.text$_ZNSt12_Vector_baseIiSaIiEE13_M_deallocateEPij,"x"
	.linkonce discard
	.align 2
	.globl	__ZNSt12_Vector_baseIiSaIiEE13_M_deallocateEPij
	.def	__ZNSt12_Vector_baseIiSaIiEE13_M_deallocateEPij;	.scl	2;	.type	32;	.endef
__ZNSt12_Vector_baseIiSaIiEE13_M_deallocateEPij:
LFB8141:
	.cfi_startproc
	pushl	%ebp
	.cfi_def_cfa_offset 8
	.cfi_offset 5, -8
	movl	%esp, %ebp
	.cfi_def_cfa_register 5
	subl	$40, %esp
	movl	%ecx, -12(%ebp)
	cmpl	$0, 8(%ebp)
	je	L46
	movl	-12(%ebp), %eax
	movl	12(%ebp), %edx
	movl	%edx, 8(%esp)
	movl	8(%ebp), %edx
	movl	%edx, 4(%esp)
	movl	%eax, (%esp)
	call	__ZNSt16allocator_traitsISaIiEE10deallocateERS0_Pij
L46:
	nop
	leave
	.cfi_restore 5
	.cfi_def_cfa 4, 4
	ret	$8
	.cfi_endproc
LFE8141:
	.section	.text$_ZSt24__uninitialized_fill_n_aIPijiiET_S1_T0_RKT1_RSaIT2_E,"x"
	.linkonce discard
	.globl	__ZSt24__uninitialized_fill_n_aIPijiiET_S1_T0_RKT1_RSaIT2_E
	.def	__ZSt24__uninitialized_fill_n_aIPijiiET_S1_T0_RKT1_RSaIT2_E;	.scl	2;	.type	32;	.endef
__ZSt24__uninitialized_fill_n_aIPijiiET_S1_T0_RKT1_RSaIT2_E:
LFB8142:
	.cfi_startproc
	pushl	%ebp
	.cfi_def_cfa_offset 8
	.cfi_offset 5, -8
	movl	%esp, %ebp
	.cfi_def_cfa_register 5
	subl	$24, %esp
	movl	16(%ebp), %eax
	movl	%eax, 8(%esp)
	movl	12(%ebp), %eax
	movl	%eax, 4(%esp)
	movl	8(%ebp), %eax
	movl	%eax, (%esp)
	call	__ZSt20uninitialized_fill_nIPijiET_S1_T0_RKT1_
	leave
	.cfi_restore 5
	.cfi_def_cfa 4, 4
	ret
	.cfi_endproc
LFE8142:
	.section	.text$_ZSt8_DestroyIPiEvT_S1_,"x"
	.linkonce discard
	.globl	__ZSt8_DestroyIPiEvT_S1_
	.def	__ZSt8_DestroyIPiEvT_S1_;	.scl	2;	.type	32;	.endef
__ZSt8_DestroyIPiEvT_S1_:
LFB8143:
	.cfi_startproc
	pushl	%ebp
	.cfi_def_cfa_offset 8
	.cfi_offset 5, -8
	movl	%esp, %ebp
	.cfi_def_cfa_register 5
	subl	$24, %esp
	movl	12(%ebp), %eax
	movl	%eax, 4(%esp)
	movl	8(%ebp), %eax
	movl	%eax, (%esp)
	call	__ZNSt12_Destroy_auxILb1EE9__destroyIPiEEvT_S3_
	nop
	leave
	.cfi_restore 5
	.cfi_def_cfa 4, 4
	ret
	.cfi_endproc
LFE8143:
	.section	.text$_ZNSaIiEC2ERKS_,"x"
	.linkonce discard
	.align 2
	.globl	__ZNSaIiEC2ERKS_
	.def	__ZNSaIiEC2ERKS_;	.scl	2;	.type	32;	.endef
__ZNSaIiEC2ERKS_:
LFB8186:
	.cfi_startproc
	pushl	%ebp
	.cfi_def_cfa_offset 8
	.cfi_offset 5, -8
	movl	%esp, %ebp
	.cfi_def_cfa_register 5
	subl	$40, %esp
	movl	%ecx, -12(%ebp)
	movl	-12(%ebp), %eax
	movl	8(%ebp), %edx
	movl	%edx, (%esp)
	movl	%eax, %ecx
	call	__ZN9__gnu_cxx13new_allocatorIiEC2ERKS1_
	subl	$4, %esp
	nop
	leave
	.cfi_restore 5
	.cfi_def_cfa 4, 4
	ret	$4
	.cfi_endproc
LFE8186:
	.section	.text$_ZNSt12_Vector_baseIiSaIiEE11_M_allocateEj,"x"
	.linkonce discard
	.align 2
	.globl	__ZNSt12_Vector_baseIiSaIiEE11_M_allocateEj
	.def	__ZNSt12_Vector_baseIiSaIiEE11_M_allocateEj;	.scl	2;	.type	32;	.endef
__ZNSt12_Vector_baseIiSaIiEE11_M_allocateEj:
LFB8188:
	.cfi_startproc
	pushl	%ebp
	.cfi_def_cfa_offset 8
	.cfi_offset 5, -8
	movl	%esp, %ebp
	.cfi_def_cfa_register 5
	subl	$40, %esp
	movl	%ecx, -12(%ebp)
	cmpl	$0, 8(%ebp)
	je	L52
	movl	-12(%ebp), %eax
	movl	8(%ebp), %edx
	movl	%edx, 4(%esp)
	movl	%eax, (%esp)
	call	__ZNSt16allocator_traitsISaIiEE8allocateERS0_j
	jmp	L54
L52:
	movl	$0, %eax
L54:
	leave
	.cfi_restore 5
	.cfi_def_cfa 4, 4
	ret	$4
	.cfi_endproc
LFE8188:
	.section	.text$_ZNSt16allocator_traitsISaIiEE10deallocateERS0_Pij,"x"
	.linkonce discard
	.globl	__ZNSt16allocator_traitsISaIiEE10deallocateERS0_Pij
	.def	__ZNSt16allocator_traitsISaIiEE10deallocateERS0_Pij;	.scl	2;	.type	32;	.endef
__ZNSt16allocator_traitsISaIiEE10deallocateERS0_Pij:
LFB8189:
	.cfi_startproc
	pushl	%ebp
	.cfi_def_cfa_offset 8
	.cfi_offset 5, -8
	movl	%esp, %ebp
	.cfi_def_cfa_register 5
	subl	$24, %esp
	movl	16(%ebp), %eax
	movl	%eax, 4(%esp)
	movl	12(%ebp), %eax
	movl	%eax, (%esp)
	movl	8(%ebp), %ecx
	call	__ZN9__gnu_cxx13new_allocatorIiE10deallocateEPij
	subl	$8, %esp
	nop
	leave
	.cfi_restore 5
	.cfi_def_cfa 4, 4
	ret
	.cfi_endproc
LFE8189:
	.section	.text$_ZSt20uninitialized_fill_nIPijiET_S1_T0_RKT1_,"x"
	.linkonce discard
	.globl	__ZSt20uninitialized_fill_nIPijiET_S1_T0_RKT1_
	.def	__ZSt20uninitialized_fill_nIPijiET_S1_T0_RKT1_;	.scl	2;	.type	32;	.endef
__ZSt20uninitialized_fill_nIPijiET_S1_T0_RKT1_:
LFB8190:
	.cfi_startproc
	pushl	%ebp
	.cfi_def_cfa_offset 8
	.cfi_offset 5, -8
	movl	%esp, %ebp
	.cfi_def_cfa_register 5
	subl	$40, %esp
	movb	$1, -9(%ebp)
	movl	16(%ebp), %eax
	movl	%eax, 8(%esp)
	movl	12(%ebp), %eax
	movl	%eax, 4(%esp)
	movl	8(%ebp), %eax
	movl	%eax, (%esp)
	call	__ZNSt22__uninitialized_fill_nILb1EE15__uninit_fill_nIPijiEET_S3_T0_RKT1_
	leave
	.cfi_restore 5
	.cfi_def_cfa 4, 4
	ret
	.cfi_endproc
LFE8190:
	.section	.text$_ZNSt12_Destroy_auxILb1EE9__destroyIPiEEvT_S3_,"x"
	.linkonce discard
	.globl	__ZNSt12_Destroy_auxILb1EE9__destroyIPiEEvT_S3_
	.def	__ZNSt12_Destroy_auxILb1EE9__destroyIPiEEvT_S3_;	.scl	2;	.type	32;	.endef
__ZNSt12_Destroy_auxILb1EE9__destroyIPiEEvT_S3_:
LFB8191:
	.cfi_startproc
	pushl	%ebp
	.cfi_def_cfa_offset 8
	.cfi_offset 5, -8
	movl	%esp, %ebp
	.cfi_def_cfa_register 5
	nop
	popl	%ebp
	.cfi_restore 5
	.cfi_def_cfa 4, 4
	ret
	.cfi_endproc
LFE8191:
	.section	.text$_ZN9__gnu_cxx13new_allocatorIiEC2ERKS1_,"x"
	.linkonce discard
	.align 2
	.globl	__ZN9__gnu_cxx13new_allocatorIiEC2ERKS1_
	.def	__ZN9__gnu_cxx13new_allocatorIiEC2ERKS1_;	.scl	2;	.type	32;	.endef
__ZN9__gnu_cxx13new_allocatorIiEC2ERKS1_:
LFB8225:
	.cfi_startproc
	pushl	%ebp
	.cfi_def_cfa_offset 8
	.cfi_offset 5, -8
	movl	%esp, %ebp
	.cfi_def_cfa_register 5
	subl	$4, %esp
	movl	%ecx, -4(%ebp)
	nop
	leave
	.cfi_restore 5
	.cfi_def_cfa 4, 4
	ret	$4
	.cfi_endproc
LFE8225:
	.section	.text$_ZNSt16allocator_traitsISaIiEE8allocateERS0_j,"x"
	.linkonce discard
	.globl	__ZNSt16allocator_traitsISaIiEE8allocateERS0_j
	.def	__ZNSt16allocator_traitsISaIiEE8allocateERS0_j;	.scl	2;	.type	32;	.endef
__ZNSt16allocator_traitsISaIiEE8allocateERS0_j:
LFB8227:
	.cfi_startproc
	pushl	%ebp
	.cfi_def_cfa_offset 8
	.cfi_offset 5, -8
	movl	%esp, %ebp
	.cfi_def_cfa_register 5
	subl	$24, %esp
	movl	$0, 4(%esp)
	movl	12(%ebp), %eax
	movl	%eax, (%esp)
	movl	8(%ebp), %ecx
	call	__ZN9__gnu_cxx13new_allocatorIiE8allocateEjPKv
	subl	$8, %esp
	leave
	.cfi_restore 5
	.cfi_def_cfa 4, 4
	ret
	.cfi_endproc
LFE8227:
	.section	.text$_ZN9__gnu_cxx13new_allocatorIiE10deallocateEPij,"x"
	.linkonce discard
	.align 2
	.globl	__ZN9__gnu_cxx13new_allocatorIiE10deallocateEPij
	.def	__ZN9__gnu_cxx13new_allocatorIiE10deallocateEPij;	.scl	2;	.type	32;	.endef
__ZN9__gnu_cxx13new_allocatorIiE10deallocateEPij:
LFB8228:
	.cfi_startproc
	pushl	%ebp
	.cfi_def_cfa_offset 8
	.cfi_offset 5, -8
	movl	%esp, %ebp
	.cfi_def_cfa_register 5
	subl	$40, %esp
	movl	%ecx, -12(%ebp)
	movl	8(%ebp), %eax
	movl	%eax, (%esp)
	call	__ZdlPv
	nop
	leave
	.cfi_restore 5
	.cfi_def_cfa 4, 4
	ret	$8
	.cfi_endproc
LFE8228:
	.section	.text$_ZNSt22__uninitialized_fill_nILb1EE15__uninit_fill_nIPijiEET_S3_T0_RKT1_,"x"
	.linkonce discard
	.globl	__ZNSt22__uninitialized_fill_nILb1EE15__uninit_fill_nIPijiEET_S3_T0_RKT1_
	.def	__ZNSt22__uninitialized_fill_nILb1EE15__uninit_fill_nIPijiEET_S3_T0_RKT1_;	.scl	2;	.type	32;	.endef
__ZNSt22__uninitialized_fill_nILb1EE15__uninit_fill_nIPijiEET_S3_T0_RKT1_:
LFB8229:
	.cfi_startproc
	pushl	%ebp
	.cfi_def_cfa_offset 8
	.cfi_offset 5, -8
	movl	%esp, %ebp
	.cfi_def_cfa_register 5
	subl	$24, %esp
	movl	16(%ebp), %eax
	movl	%eax, 8(%esp)
	movl	12(%ebp), %eax
	movl	%eax, 4(%esp)
	movl	8(%ebp), %eax
	movl	%eax, (%esp)
	call	__ZSt6fill_nIPijiET_S1_T0_RKT1_
	leave
	.cfi_restore 5
	.cfi_def_cfa 4, 4
	ret
	.cfi_endproc
LFE8229:
	.section	.text$_ZN9__gnu_cxx13new_allocatorIiE8allocateEjPKv,"x"
	.linkonce discard
	.align 2
	.globl	__ZN9__gnu_cxx13new_allocatorIiE8allocateEjPKv
	.def	__ZN9__gnu_cxx13new_allocatorIiE8allocateEjPKv;	.scl	2;	.type	32;	.endef
__ZN9__gnu_cxx13new_allocatorIiE8allocateEjPKv:
LFB8254:
	.cfi_startproc
	pushl	%ebp
	.cfi_def_cfa_offset 8
	.cfi_offset 5, -8
	movl	%esp, %ebp
	.cfi_def_cfa_register 5
	subl	$40, %esp
	movl	%ecx, -12(%ebp)
	movl	-12(%ebp), %eax
	movl	%eax, %ecx
	call	__ZNK9__gnu_cxx13new_allocatorIiE8max_sizeEv
	cmpl	8(%ebp), %eax
	setb	%al
	testb	%al, %al
	je	L66
	call	__ZSt17__throw_bad_allocv
L66:
	movl	8(%ebp), %eax
	sall	$2, %eax
	movl	%eax, (%esp)
	call	__Znwj
	leave
	.cfi_restore 5
	.cfi_def_cfa 4, 4
	ret	$8
	.cfi_endproc
LFE8254:
	.section	.text$_ZSt6fill_nIPijiET_S1_T0_RKT1_,"x"
	.linkonce discard
	.globl	__ZSt6fill_nIPijiET_S1_T0_RKT1_
	.def	__ZSt6fill_nIPijiET_S1_T0_RKT1_;	.scl	2;	.type	32;	.endef
__ZSt6fill_nIPijiET_S1_T0_RKT1_:
LFB8255:
	.cfi_startproc
	pushl	%ebp
	.cfi_def_cfa_offset 8
	.cfi_offset 5, -8
	movl	%esp, %ebp
	.cfi_def_cfa_register 5
	subl	$24, %esp
	movl	8(%ebp), %eax
	movl	%eax, (%esp)
	call	__ZSt12__niter_baseIPiET_S1_
	movl	%eax, %edx
	movl	16(%ebp), %eax
	movl	%eax, 8(%esp)
	movl	12(%ebp), %eax
	movl	%eax, 4(%esp)
	movl	%edx, (%esp)
	call	__ZSt10__fill_n_aIPijiEN9__gnu_cxx11__enable_ifIXsrSt11__is_scalarIT1_E7__valueET_E6__typeES6_T0_RKS4_
	leave
	.cfi_restore 5
	.cfi_def_cfa 4, 4
	ret
	.cfi_endproc
LFE8255:
	.section	.text$_ZNK9__gnu_cxx13new_allocatorIiE8max_sizeEv,"x"
	.linkonce discard
	.align 2
	.globl	__ZNK9__gnu_cxx13new_allocatorIiE8max_sizeEv
	.def	__ZNK9__gnu_cxx13new_allocatorIiE8max_sizeEv;	.scl	2;	.type	32;	.endef
__ZNK9__gnu_cxx13new_allocatorIiE8max_sizeEv:
LFB8264:
	.cfi_startproc
	pushl	%ebp
	.cfi_def_cfa_offset 8
	.cfi_offset 5, -8
	movl	%esp, %ebp
	.cfi_def_cfa_register 5
	subl	$4, %esp
	movl	%ecx, -4(%ebp)
	movl	$1073741823, %eax
	leave
	.cfi_restore 5
	.cfi_def_cfa 4, 4
	ret
	.cfi_endproc
LFE8264:
	.section	.text$_ZSt12__niter_baseIPiET_S1_,"x"
	.linkonce discard
	.globl	__ZSt12__niter_baseIPiET_S1_
	.def	__ZSt12__niter_baseIPiET_S1_;	.scl	2;	.type	32;	.endef
__ZSt12__niter_baseIPiET_S1_:
LFB8265:
	.cfi_startproc
	pushl	%ebp
	.cfi_def_cfa_offset 8
	.cfi_offset 5, -8
	movl	%esp, %ebp
	.cfi_def_cfa_register 5
	movl	8(%ebp), %eax
	popl	%ebp
	.cfi_restore 5
	.cfi_def_cfa 4, 4
	ret
	.cfi_endproc
LFE8265:
	.section	.text$_ZSt10__fill_n_aIPijiEN9__gnu_cxx11__enable_ifIXsrSt11__is_scalarIT1_E7__valueET_E6__typeES6_T0_RKS4_,"x"
	.linkonce discard
	.globl	__ZSt10__fill_n_aIPijiEN9__gnu_cxx11__enable_ifIXsrSt11__is_scalarIT1_E7__valueET_E6__typeES6_T0_RKS4_
	.def	__ZSt10__fill_n_aIPijiEN9__gnu_cxx11__enable_ifIXsrSt11__is_scalarIT1_E7__valueET_E6__typeES6_T0_RKS4_;	.scl	2;	.type	32;	.endef
__ZSt10__fill_n_aIPijiEN9__gnu_cxx11__enable_ifIXsrSt11__is_scalarIT1_E7__valueET_E6__typeES6_T0_RKS4_:
LFB8266:
	.cfi_startproc
	pushl	%ebp
	.cfi_def_cfa_offset 8
	.cfi_offset 5, -8
	movl	%esp, %ebp
	.cfi_def_cfa_register 5
	subl	$16, %esp
	movl	16(%ebp), %eax
	movl	(%eax), %eax
	movl	%eax, -8(%ebp)
	movl	12(%ebp), %eax
	movl	%eax, -4(%ebp)
L76:
	cmpl	$0, -4(%ebp)
	je	L75
	movl	8(%ebp), %eax
	movl	-8(%ebp), %edx
	movl	%edx, (%eax)
	subl	$1, -4(%ebp)
	addl	$4, 8(%ebp)
	jmp	L76
L75:
	movl	8(%ebp), %eax
	leave
	.cfi_restore 5
	.cfi_def_cfa 4, 4
	ret
	.cfi_endproc
LFE8266:
	.text
	.def	___tcf_0;	.scl	3;	.type	32;	.endef
___tcf_0:
LFB8278:
	.cfi_startproc
	pushl	%ebp
	.cfi_def_cfa_offset 8
	.cfi_offset 5, -8
	movl	%esp, %ebp
	.cfi_def_cfa_register 5
	subl	$8, %esp
	movl	$__ZStL8__ioinit, %ecx
	call	__ZNSt8ios_base4InitD1Ev
	leave
	.cfi_restore 5
	.cfi_def_cfa 4, 4
	ret
	.cfi_endproc
LFE8278:
	.def	__Z41__static_initialization_and_destruction_0ii;	.scl	3;	.type	32;	.endef
__Z41__static_initialization_and_destruction_0ii:
LFB8277:
	.cfi_startproc
	pushl	%ebp
	.cfi_def_cfa_offset 8
	.cfi_offset 5, -8
	movl	%esp, %ebp
	.cfi_def_cfa_register 5
	subl	$24, %esp
	cmpl	$1, 8(%ebp)
	jne	L81
	cmpl	$65535, 12(%ebp)
	jne	L81
	movl	$__ZStL8__ioinit, %ecx
	call	__ZNSt8ios_base4InitC1Ev
	movl	$___tcf_0, (%esp)
	call	_atexit
L81:
	nop
	leave
	.cfi_restore 5
	.cfi_def_cfa 4, 4
	ret
	.cfi_endproc
LFE8277:
	.def	__GLOBAL__sub_I__Z3lisPKii;	.scl	3;	.type	32;	.endef
__GLOBAL__sub_I__Z3lisPKii:
LFB8279:
	.cfi_startproc
	pushl	%ebp
	.cfi_def_cfa_offset 8
	.cfi_offset 5, -8
	movl	%esp, %ebp
	.cfi_def_cfa_register 5
	subl	$24, %esp
	movl	$65535, 4(%esp)
	movl	$1, (%esp)
	call	__Z41__static_initialization_and_destruction_0ii
	leave
	.cfi_restore 5
	.cfi_def_cfa 4, 4
	ret
	.cfi_endproc
LFE8279:
	.section	.ctors,"w"
	.align 4
	.long	__GLOBAL__sub_I__Z3lisPKii
	.ident	"GCC: (MinGW.org GCC-6.3.0-1) 6.3.0"
	.def	__Unwind_Resume;	.scl	2;	.type	32;	.endef
	.def	__ZNSirsERi;	.scl	2;	.type	32;	.endef
	.def	__ZNSolsEi;	.scl	2;	.type	32;	.endef
	.def	__ZdlPv;	.scl	2;	.type	32;	.endef
	.def	__ZSt17__throw_bad_allocv;	.scl	2;	.type	32;	.endef
	.def	__Znwj;	.scl	2;	.type	32;	.endef
	.def	__ZNSt8ios_base4InitD1Ev;	.scl	2;	.type	32;	.endef
	.def	__ZNSt8ios_base4InitC1Ev;	.scl	2;	.type	32;	.endef
	.def	_atexit;	.scl	2;	.type	32;	.endef
